target datalayout = "e-m:e-p270:32:32-p271:32:32-p272:64:64-i64:64-i128:128-f80:128-n8:16:32:64-S128"
target triple = "x86_64-pc-linux-gnu"

@SDL_HIDAPI_change_count = internal global i32 0, align 4
@.str.13 = private unnamed_addr constant [37 x i8] c"SDL_JOYSTICK_HIDAPI_COMBINE_JOY_CONS\00", align 1
@SDL_HIDAPI_combine_joycons = internal global i8 1, align 1
@SDL_HIDAPI_hints_changed = internal global i8 0, align 1

; Function Attrs: nounwind uwtable
define internal void @SDL_HIDAPIDriverHintChanged(ptr noundef %0, ptr noundef %1, ptr noundef %2, ptr noundef %3) #0 {
  %5 = alloca ptr, align 8
  %6 = alloca ptr, align 8
  %7 = alloca ptr, align 8
  %8 = alloca ptr, align 8
  store ptr %0, ptr %5, align 8
  store ptr %1, ptr %6, align 8
  store ptr %2, ptr %7, align 8
  store ptr %3, ptr %8, align 8
  %9 = load ptr, ptr %6, align 8
  %10 = call i32 @SDL_strcmp_REAL(ptr noundef %9, ptr noundef @.str.13)
  %11 = icmp eq i32 %10, 0
  br i1 %11, label %12, label %16

12:                                               ; preds = %4
  %13 = load ptr, ptr %8, align 8
  %14 = call zeroext i1 @SDL_GetStringBoolean(ptr noundef %13, i1 noundef zeroext true)
  %15 = zext i1 %14 to i8
  store i8 %15, ptr @SDL_HIDAPI_combine_joycons, align 1
  br label %16

16:                                               ; preds = %12, %4
  store i8 1, ptr @SDL_HIDAPI_hints_changed, align 1
  store i32 0, ptr @SDL_HIDAPI_change_count, align 4
  ret void
}