; Function Attrs: nounwind uwtable
define internal void @SDL_HIDAPIDriverHintChanged(ptr readnone captures(none) %0, ptr noundef %1, ptr readnone captures(none) %2, ptr noundef %3) #0 {
  %5 = tail call i32 @SDL_strcmp_REAL(ptr noundef %1, ptr noundef nonnull @.str.13) #9
  %6 = icmp eq i32 %5, 0
  br i1 %6, label %7, label %10

7:                                                ; preds = %4
  %8 = tail call zeroext i1 @SDL_GetStringBoolean(ptr noundef %3, i1 noundef zeroext true) #9
  %9 = zext i1 %8 to i8
  store i8 %9, ptr @SDL_HIDAPI_combine_joycons, align 1
  br label %10

10:                                               ; preds = %7, %4
  store i1 true, ptr @SDL_HIDAPI_hints_changed, align 1
  store i32 0, ptr @SDL_HIDAPI_change_count, align 4
  ret void
}